(dp0
S'AC_DC'
p1
(dp2
S'The Best of Rock'
p3
(dp4
S'Shook Me All Night Long.mp3'
p5
(dp6
sssS'Be Good Tanyas'
p7
(dp8
S'Unknown Album'
p9
(dp10
S'Light Enough to Travel.mp3'
p11
(dp12
sssS'ADN'
p13
(dp14
S'Unknown Album'
p15
(dp16
S'scape.mp3'
p17
(dp18
sssS'Alicia Keys'
p19
(dp20
S'German Top100 Single Charts'
p21
(dp22
S'03 No One.mp3'
p23
(dp24
sssS'Alicia De Larrocha'
p25
(dp26
S'Danzas Espan\xcc\x83olas, Op.37'
p27
(dp28
S'11 XI. G minor - sol mineur - g-moll (Zambra).mp3'
p29
(dp30
sS'05 V. Dedicated to Alfredo G. Faria (Andaluza).mp3'
p31
(dp32
sS'02 II. Dedicated to Julian Marti (Oriental).mp3'
p33
(dp34
sS'10 X. Dedicated to the Infanta Isabella (Danza triste).mp3'
p35
(dp36
sS'06 VI. Dedicated to D. Murillo (Rondalla aragonesa).mp3'
p37
(dp38
sS'12 XII. A minor - la mineur - a-moll (Arabesca).mp3'
p39
(dp40
sS'04 IV. Dedicated to T. Tasso (Villanesca).mp3'
p41
(dp42
sS'03 III. Dedicated to Joaquin Vancells (Zarabanda).mp3'
p43
(dp44
sS'01 I. Dedicated to Amparo Gal (Minueto).mp3'
p45
(dp46
sS'09 IX. B flat major - si be\xcc\x81mol majeur - B-dur (Mazurca).mp3'
p47
(dp48
sS'08 VIII. C major - ut majeur - C-dur (Asturiana).mp3'
p49
(dp50
sS'07 VII. Dedicated to Ce\xcc\x81sar Cui (Valenciana).mp3'
p51
(dp52
sssS'Asian Dub Foundation'
p53
(dp54
S'Unknown Album'
p55
(dp56
S'Rebel Warrior.mp3'
p57
(dp58
sS'Cyberabad.mp3'
p59
(dp60
sS'Power to the Small Massive.mp3'
p61
(dp62
sS'Dhol Rinse.mp3'
p63
(dp64
sS'Blowback.mp3'
p65
(dp66
sS'1000 Mirrors.mp3'
p67
(dp68
sS'Enemy of the Enemy.mp3'
p69
(dp70
sS'Naxalite.mp3'
p71
(dp72
sS'Box.mp3'
p73
(dp74
sS"Buzzin'.mp3"
p75
(dp76
sS'Fortress Europe.mp3'
p77
(dp78
ssS'R.A.F.I_'
p79
(dp80
S'11 Dub Mentality.mp3'
p81
(dp82
sS'02 Change.mp3'
p83
(dp84
sS'12 Culture Move.mp3'
p85
(dp86
sssS'Beirut'
p87
(dp88
S'The Flying Club Cup'
p89
(dp90
S'11 St. Apollonia.mp3'
p91
(dp92
sS'10 Cherbourg.mp3'
p93
(dp94
sS'09 Un Dernier Verre (Pour La Route).mp3'
p95
(dp96
sS'06 The Penalty.mp3'
p97
(dp98
sS'13 Untitled.mp3'
p99
(dp100
sS'12 The Flying Club Cup.mp3'
p101
(dp102
sS'03 A Sunday Smile.mp3'
p103
(dp104
sS'05 Cliquot.mp3'
p105
(dp106
sS'02 Nantes.mp3'
p107
(dp108
sS'08 In The Mausoluem.mp3'
p109
(dp110
sS'04 La Banlieu.mp3'
p111
(dp112
sS'01 A Call To Arms.mp3'
p113
(dp114
sS'07 Forks And Knives (La Fete).mp3'
p115
(dp116
ssS'Gulag Orkestar, The'
p117
(dp118
S'02 Prenzlauerberg.mp3'
p119
(dp120
sS'08 Bratislava.mp3'
p121
(dp122
sS'06 Rhineland (Heartland).mp3'
p123
(dp124
sS'10 Canals Of Our City, The.mp3'
p125
(dp126
sS'04 Postcards From Italy.mp3'
p127
(dp128
sS'07 Scenic World.mp3'
p129
(dp130
sS'03 Brandenburg.mp3'
p131
(dp132
sS'01 Gulag Orkestar, The.mp3'
p133
(dp134
sS'05 Mount Wroclai (Idle Days).mp3'
p135
(dp136
sS'09 Bunker, The.mp3'
p137
(dp138
sS'11 After The Curtain.mp3'
p139
(dp140
sssS'A Suivre _ N.e.r.d'
p141
(dp142
S'Unknown Album'
p143
(dp144
S'She Wants To Move.mp3'
p145
(dp146
sssS'Baby Mammoth'
p147
(dp148
S'Unknown Album'
p149
(dp150
S'Deadpool.mp3'
p151
(dp152
sssS'Beck'
p153
(dp154
S'Unknown Album'
p155
(dp156
S'Loser.mp3'
p157
(dp158
sS'Earthquake Weather.mp3'
p159
(dp160
ssS'Guero'
p161
(dp162
S'13 Emergency Exit.mp3'
p163
(dp164
sS'18 Broken Drum (Boards of Canada.mp3'
p165
(dp166
sS'07 Hell Yes.mp3'
p167
(dp168
sS'04 Missing.mp3'
p169
(dp170
sS'16 Clap Hands (bonus track).mp3'
p171
(dp172
sS'15 Chain Reaction (bonus track).mp3'
p173
(dp174
sS'11 Farewell Ride.mp3'
p175
(dp176
sS'10 Go It Alone.mp3'
p177
(dp178
sS'12 Rental Car.mp3'
p179
(dp180
sS'05 Black Tambourine.mp3'
p181
(dp182
sS'03 Girl.mp3'
p183
(dp184
sS'09 Scarecrow.mp3'
p185
(dp186
sS'02 Que\xcc\x81 Onda Guero.mp3'
p187
(dp188
sS'20 Fax Machine Anthem (Dizzee Ras.mp3'
p189
(dp190
sS'17 Girl (octet remix).mp3'
p191
(dp192
sS'19 Still Missing (Royksopp remix).mp3'
p193
(dp194
sS'08 Broken Drum.mp3'
p195
(dp196
sS'06 Earthquake Weather.mp3'
p197
(dp198
sS'01 E-Pro.mp3'
p199
(dp200
sS'14 Send a Message to Her (bonus t.mp3'
p201
(dp202
ssS'Mutations'
p203
(dp204
S'03 Lazy Flies.mp3'
p205
(dp206
sssS'10,000 Maniacs'
p207
(dp208
S'MTV Unplugged'
p209
(dp210
S'08 Gold Rush Brides.mp3'
p211
(dp212
sS'09 Like The Weather.mp3'
p213
(dp214
sS"14 Noah's Dove.mp3"
p215
(dp216
sS'12 Because The Night.mp3'
p217
(dp218
sS"07 What's The Matter Here _.mp3"
p219
(dp220
sS'01 These Are Days.mp3'
p221
(dp222
sS'11 Jezebel.mp3'
p223
(dp224
sS'10 Trouble Me 1.mp3'
p225
(dp226
sS'06 Hey Jack Kerouac.mp3'
p227
(dp228
sS"04 I'm Not The Man.mp3"
p229
(dp230
sS"05 Don't Talk.mp3"
p231
(dp232
sS'03 Candy Everybody Wants.mp3'
p233
(dp234
sS'02 Eat For Two.mp3'
p235
(dp236
sS'13 Stockton Gala Days.mp3'
p237
(dp238
sS'10 Trouble Me.mp3'
p239
(dp240
sssS'Al Jarreau'
p241
(dp242
S'Al Jarreau In London'
p243
(dp244
S'02 Black And Blues.mp3'
p245
(dp246
sS'01 Raging Waters.mp3'
p247
(dp248
sS'06 Roof Garden.mp3'
p249
(dp250
sS'07 Teach Me Tonight.mp3'
p251
(dp252
sS'03 I Will Be Here For You (Nitakungodea Milele).mp3'
p253
(dp254
sS'05 High Crime.mp3'
p255
(dp256
sS"04 Let's Pretend.mp3"
p257
(dp258
sS"08 We're In This Love Together.mp3"
p259
(dp260
sssS'Andy Narell'
p261
(dp262
S'Unknown Album'
p263
(dp264
S'Rainorama.mp3'
p265
(dp266
sssS'Abd al malik'
p267
(dp268
S'Gibraltar'
p269
(dp270
S'02 - 12 septembre 2001.mp3'
p271
(dp272
sS"14 - l'alchimiste.mp3"
p273
(dp274
sS'01 - gibraltar.mp3'
p275
(dp276
sS'03 - soldat de plomb.mp3'
p277
(dp278
sS'12 - celine.mp3'
p279
(dp280
sS'04 - les autres.mp3'
p281
(dp282
sS'06 - saigne.mp3'
p283
(dp284
sS'09 - il se reve debout.mp3'
p285
(dp286
sS'07 - mourir a 30 ans.mp3'
p287
(dp288
sS'15 - adam and eve ft Wallen (bonus track).mp3'
p289
(dp290
sS'08 - le grand frere.mp3'
p291
(dp292
sS'05 - la gravite.mp3'
p293
(dp294
sS'13 - je regarderai pour toi les etoiles.mp3'
p295
(dp296
sS"10 - m'effacer.mp3"
p297
(dp298
sS'11 - rentrer chez moi.mp3'
p299
(dp300
sssS'Ampm'
p301
(dp302
S'Unknown Album'
p303
(dp304
S'Silver Spoon.mp3'
p305
(dp306
sssS'ACDC'
p307
(dp308
S'Unknown Album'
p309
(dp310
S'Thunderstruck.mp3'
p311
(dp312
ssS'.DS_Store'
p313
(dp314
ssS'Baz'
p315
(dp316
S'Unknown Album'
p317
(dp318
S'Smile To Shine.mp3'
p319
(dp320
sssS'Air'
p321
(dp322
S'Talkie Walkie'
p323
(dp324
S'04 Universal Traveller.mp3'
p325
(dp326
sS'05 Mike Mills.mp3'
p327
(dp328
sS'03 Run.mp3'
p329
(dp330
sS'01 Venus.mp3'
p331
(dp332
sS'09 Biological.mp3'
p333
(dp334
sS'08 Alpha Beta Gaga.mp3'
p335
(dp336
sS'10 Alone in Kyoto.mp3'
p337
(dp338
sS'07 Another Day.mp3'
p339
(dp340
sS"06 Surfin' on a Rock.mp3"
p341
(dp342
sS'02 Cherry Blossom Girl.mp3'
p343
(dp344
ssS'Moon Safari'
p345
(dp346
S'05 Talisman.mp3'
p347
(dp348
sS'09 New Star In The Sky.mp3'
p349
(dp350
sS'02 Sexy Boy.mp3'
p351
(dp352
sS'08 Ce Matin La.mp3'
p353
(dp354
sS'07 You Make It Easy.mp3'
p355
(dp356
sS'04 Kelly Watch The Stars.mp3'
p357
(dp358
sS'06 Remember.mp3'
p359
(dp360
sS"01 La Femme D'argent.mp3"
p361
(dp362
sS'03 All I Need.mp3'
p363
(dp364
sssS'Aziza Mustafa\xcc\x80 Zadeh'
p365
(dp366
S'Seventh Truth'
p367
(dp368
S'03 Interlude -1-.mp3'
p369
(dp370
sS'04 Fly With Me.mp3'
p371
(dp372
sS'09 Interlude -2-.mp3'
p373
(dp374
sS'12 Sea Monster.mp3'
p375
(dp376
sS'02 Lachin.mp3'
p377
(dp378
sS'11 Seventh Truth.mp3'
p379
(dp380
sS'08 I Am Sad.mp3'
p381
(dp382
sS'01 Ay Dilber.mp3'
p383
(dp384
sS'05 F#.mp3'
p385
(dp386
sS'10 Wild Beauty.mp3'
p387
(dp388
sS'06 Desperation.mp3'
p389
(dp390
sS'07 Daha ... (Again).mp3'
p391
(dp392
ssS'Dance Of Fire'
p393
(dp394
S'03 Sheherezadeh.mp3'
p395
(dp396
sS'10 To Be Continued.mp3'
p397
(dp398
sS'01 Boomerang.mp3'
p399
(dp400
sS'11 Father.mp3'
p401
(dp402
sS'07 Carnival.mp3'
p403
(dp404
sS'08 Passion.mp3'
p405
(dp406
sS'02 Dance Of Fire.mp3'
p407
(dp408
sS'09 Spanish Picture.mp3'
p409
(dp410
sS'04 Aspiration.mp3'
p411
(dp412
sS'06 Shadow.mp3'
p413
(dp414
sS'05 Bana Bana Gel (Bad Girl).mp3'
p415
(dp416
ssS'Aziza Mustafa Zadeh'
p417
(dp418
S'05 Reflection.mp3'
p419
(dp420
sS"09 Aziza's Dream.mp3"
p421
(dp422
sS'01 Quiet Alone.mp3'
p423
(dp424
sS'04 Inspiration.mp3'
p425
(dp426
sS'06 Oriental Fantasy.mp3'
p427
(dp428
sS'14 Exprompt.mp3'
p429
(dp430
sS'02 Tea On The Carpet.mp3'
p431
(dp432
sS'07 Blue Day.mp3'
p433
(dp434
sS'12 I Cannot Sleep.mp3'
p435
(dp436
sS'11 My Ballad.mp3'
p437
(dp438
sS'10 Chargah.mp3'
p439
(dp440
sS'03 Cemetery.mp3'
p441
(dp442
sS'13 Moment.mp3'
p443
(dp444
sS'15 Two Candles.mp3'
p445
(dp446
sS'08 Character.mp3'
p447
(dp448
sssS'A Suivre _ Phil Collins'
p449
(dp450
S'Unknown Album'
p451
(dp452
S'True Colors.mp3'
p453
(dp454
sssS'Amon Tobin - Eric Truffaz'
p455
(dp456
S'-'
p457
(dp458
S'04 Track 04.mp3'
p459
(dp460
sS'01 Track 01.mp3'
p461
(dp462
sS'05 Track 05.mp3'
p463
(dp464
sS'08 Track 08.mp3'
p465
(dp466
sS'02 Track 02.mp3'
p467
(dp468
sS'06 Track 06.mp3'
p469
(dp470
sS'03 Track 03.mp3'
p471
(dp472
sssS'Anastasia Khitruk'
p473
(dp474
S'Unknown Album'
p475
(dp476
S'Locatelli Caprice No. 7 in E-M.mp3'
p477
(dp478
sS'Paganini Caprice No. 17.mp3'
p479
(dp480
sS'Paganiniana.mp3'
p481
(dp482
sssS'anouk'
p483
(dp484
S'Urban Solitude'
p485
(dp486
S'01 Tom Waits.mp3'
p487
(dp488
sssS'59 Times The Pain'
p489
(dp490
S'Music For HardcorePunx'
p491
(dp492
S'06 Police On My Back.mp3'
p493
(dp494
sssS'A Suivre _ Ashlee Simpson'
p495
(dp496
S'Unknown Album'
p497
(dp498
S'Pieces Of Me.mp3'
p499
(dp500
sssS'Arctic Monkeys'
p501
(dp502
S'Unknown Album'
p503
(dp504
S'01 Still Take You Home.mp3'
p505
(dp506
ssS'Beneath the boardwalk'
p507
(dp508
S'01 Mardy Bum.mp3'
p509
(dp510
sS'07 When The Sun Goes Down.mp3'
p511
(dp512
sS'02 Fake Tales Of San Francisco.mp3'
p513
(dp514
ssS'Favourite Worst Nightmare'
p515
(dp516
S'05 Fluorescent Adolescent.mp3'
p517
(dp518
sssS'aural float'
p519
(dp520
S'Unknown Album'
p521
(dp522
S'switchin the wave of thought.mp3'
p523
(dp524
sssS'A Suivre _ Ampm'
p525
(dp526
S'Unknown Album'
p527
(dp528
S'Silver Spoon.mp3'
p529
(dp530
sssS'Artiste inconnu'
p531
(dp532
S'Album inconnu'
p533
(dp534
S'11 Piste 11.mp3'
p535
(dp536
sS'Cesaria Evora-04.mp3'
p537
(dp538
sS'Cesaria Evora-12.mp3'
p539
(dp540
sS'Cesaria Evora-11.mp3'
p541
(dp542
sS'Cesaria Evora-16.mp3'
p543
(dp544
sS'06 Piste 06.mp3'
p545
(dp546
sS'Cesaria Evora-15.mp3'
p547
(dp548
sS'Le Marche\xcc\x81 Mieux.mp3'
p549
(dp550
sS'18 Piste 18.mp3'
p551
(dp552
sS'09 Piste 09.mp3'
p553
(dp554
sS'04 Piste 04.mp3'
p555
(dp556
sS'05 Piste 05.mp3'
p557
(dp558
sS'07 Piste 07.mp3'
p559
(dp560
sS'Cesaria Evora-03.mp3'
p561
(dp562
sS'Cesaria Evora-08.mp3'
p563
(dp564
sS'Cesaria Evora-07.mp3'
p565
(dp566
sS'Cesaria Evora-06.mp3'
p567
(dp568
sS'Cesaria Evora-13.mp3'
p569
(dp570
sS'08 Piste 08.mp3'
p571
(dp572
sS'.DS_Store'
p573
(dp574
sS'16 Piste 16.mp3'
p575
(dp576
sS'COUP DE BOULE.mp3'
p577
(dp578
sS'02 Piste 02.mp3'
p579
(dp580
sS'19 Piste 19.mp3'
p581
(dp582
sS'Cesaria Evora-02.mp3'
p583
(dp584
sS'Cesaria Evora-17.mp3'
p585
(dp586
sS'21 Piste 21.mp3'
p587
(dp588
sS'17 Piste 17.mp3'
p589
(dp590
sS'danube 1.mp3'
p591
(dp592
sS'03 Piste 03.mp3'
p593
(dp594
sS'Cesaria Evora-09.mp3'
p595
(dp596
sS'20 Piste 20.mp3'
p597
(dp598
sS'12 Piste 12.mp3'
p599
(dp600
sS'Cesaria Evora-10.mp3'
p601
(dp602
sS'13 Piste 13.mp3'
p603
(dp604
sS'Cesaria Evora-05.mp3'
p605
(dp606
sS'14 Piste 14.mp3'
p607
(dp608
sS'Cesaria Evora-14.mp3'
p609
(dp610
sS'10 Piste 10.mp3'
p611
(dp612
sS'15 Piste 15.mp3'
p613
(dp614
sS'01 Piste 01.mp3'
p615
(dp616
ssS'.DS_Store'
p617
(dp618
ssS'Astor Piazzolla'
p619
(dp620
S'Serie 20 Exitos'
p621
(dp622
S'09 Tierrita.mp3'
p623
(dp624
sS'04 Nonino.mp3'
p625
(dp626
sS'05 Guitarrazo.mp3'
p627
(dp628
sS'08 Preparense.mp3'
p629
(dp630
sS'07 El motivo.mp3'
p631
(dp632
sS'15 El gordo triste.mp3'
p633
(dp634
sS'18 Balada para un loco.mp3'
p635
(dp636
sS'10 Chique.mp3'
p637
(dp638
sS'12 Quejas de Bandoneon.mp3'
p639
(dp640
sS'16 La primera palabra.mp3'
p641
(dp642
sS'14 Malena.mp3'
p643
(dp644
sS'02 Contrabajeando.mp3'
p645
(dp646
sS'06 Volver.mp3'
p647
(dp648
sS'20 Verano porte o.mp3'
p649
(dp650
sS'11 Triunfal.mp3'
p651
(dp652
sS'13 Sur.mp3'
p653
(dp654
sS'19 Chiquilin de Bachin.mp3'
p655
(dp656
sS'17 Las ciudades.mp3'
p657
(dp658
sS'01 Adios Nonino.mp3'
p659
(dp660
sS'03 Lo que vendra.mp3'
p661
(dp662
sssS'Agne\xcc\x80s Jaoui'
p663
(dp664
S'Canta'
p665
(dp666
S'11 Espe\xcc\x81rame en el cielo.mp3'
p667
(dp668
sS'01 Suen\xcc\x83o ideal.mp3'
p669
(dp670
sS'12 O meu amor.mp3'
p671
(dp672
sS"03 Pa'ti.mp3"
p673
(dp674
sS'09 Samba em prelu\xcc\x81dio.mp3'
p675
(dp676
sS'06 Tanguillo nuevo.mp3'
p677
(dp678
sS'05 Fado do retorno.mp3'
p679
(dp680
sS'08 Ya no se\xcc\x81 que me han hecho tus ojos.mp3'
p681
(dp682
sS'07 Escucha.mp3'
p683
(dp684
sS'10 Milonga del navegante.mp3'
p685
(dp686
sS'04 Historia de un amor.mp3'
p687
(dp688
sS'02 Lo dudo.mp3'
p689
(dp690
sssS'Alkemx'
p691
(dp692
S'Unknown Album'
p693
(dp694
S'Blow Me (Away).mp3'
p695
(dp696
sS'Time To Lounge.mp3'
p697
(dp698
sssS'Anouar Brahem'
p699
(dp700
S'Le pas du chat noir'
p701
(dp702
S'11 Leila Au Pays Du Carrousel, Var..mp3'
p703
(dp704
sS'09 Les Ailes Due Bourak.mp3'
p705
(dp706
sS'12 De\xcc\x81ja\xcc\x80 La Nuit.mp3'
p707
(dp708
sS'03 Leila Au Pays Du Carrousel.mp3'
p709
(dp710
sS'04 Pique-Nique A\xcc\x80 Nagpur.mp3'
p711
(dp712
sS'08 Un Point Bleu.mp3'
p713
(dp714
sS'06 Toi Qui Sait.mp3'
p715
(dp716
sS'10 Rue Du De\xcc\x81part.mp3'
p717
(dp718
sS'02 De Tout Ton Coeur.mp3'
p719
(dp720
sS'01 Le Pas Due Chat Noir.mp3'
p721
(dp722
sS"07 L'arbre Qui Voit.mp3"
p723
(dp724
sS"05 C'est Ailleurs.mp3"
p725
(dp726
sS'01 Le pas du chat noir.mp3'
p727
(dp728
ssS'Astrakan Cafe'
p729
(dp730
S'07 Halfaouine.mp3'
p731
(dp732
sS'01 Aube Rouge A\xcc\x80 Grozny.mp3'
p733
(dp734
sS'11 Astara.mp3'
p735
(dp736
sS'10 Karakoum.mp3'
p737
(dp738
sS'04 Blue Jewels.mp3'
p739
(dp740
sS'14 Astrakan Cafe\xcc\x81 (2).mp3'
p741
(dp742
sS'12 Dar Es Salam.mp3'
p743
(dp744
sS'13 Hijaz Pechref.mp3'
p745
(dp746
sS'02 Astrakan Cafe\xcc\x81 (1).mp3'
p747
(dp748
sS'05 Nihawend Lunga.mp3'
p749
(dp750
sS'06 Ashkabad.mp3'
p751
(dp752
sS'08 Parfum De Gitane.mp3'
p753
(dp754
sS'09 Khotan.mp3'
p755
(dp756
sS"03 The Mozdok's Train.mp3"
p757
(dp758
sssS'Afterlife'
p759
(dp760
S'Unknown Album'
p761
(dp762
S'Cry (Spoon Wizard Mix).mp3'
p763
(dp764
sssS'Angel Romero'
p765
(dp766
S'Concierto de Aranjuez'
p767
(dp768
S'02 Concierto de Aranjuez - II. Adagio.mp3'
p769
(dp770
sS'05 Elogio de la Guitarra - II. Andantino.mp3'
p771
(dp772
sS'03 Concierto de Aranjuez - III. Allegro gentile.mp3'
p773
(dp774
sS'08 Fantasi\xcc\x81a Para Un Gentilhombre - II. Adagio (Espan\xcc\x83oleta e Fanfare de la Caballeri\xcc\x81a De Na\xcc\x81poles).mp3'
p775
(dp776
sS'10 Fantasi\xcc\x81a Para Un Gentilhombre - IV. Allegro ma non troppo (Canario).mp3'
p777
(dp778
sS'06 Elogio de la Guitarra - III. Allegro Piu\xcc\x80 allegro.mp3'
p779
(dp780
sS'01 Concierto de Aranjuez - I. Allegro con spirito.mp3'
p781
(dp782
sS'07 Fantasi\xcc\x81a Para Un Gentilhombre - I. Adagietto-Andante moderato (Villano y Ricercare).mp3'
p783
(dp784
sS'09 Fantasi\xcc\x81a Para Un Gentilhombre - III. Allegro con brio (Danza de las Hachas).mp3'
p785
(dp786
sS'04 Elogio de la Guitarra - I. Allegro.mp3'
p787
(dp788
sssS'Bajo Fondo'
p789
(dp790
S'Tango Club'
p791
(dp792
S'05 Forma.mp3'
p793
(dp794
sS'08 Ese Cielo Azul.mp3'
p795
(dp796
sS'03 Exodo II.mp3'
p797
(dp798
sS'06 El Sonido de la Milonga.mp3'
p799
(dp800
sS'16 Naranjo en Flor.mp3'
p801
(dp802
sS'09 En Mi_Soledad.mp3'
p803
(dp804
sS'15 Espera\xcc\x81ndote.mp3'
p805
(dp806
sS'04 Duro y Parejo.mp3'
p807
(dp808
sS'07 Av. de Mayo.mp3'
p809
(dp810
sS'02 Bruma.mp3'
p811
(dp812
sS'11 Mi Corazo\xcc\x81n.mp3'
p813
(dp814
sS'01 Montserrat.mp3'
p815
(dp816
sS'14 Vaci\xcc\x81o.mp3'
p817
(dp818
sS'13 Perfume.mp3'
p819
(dp820
sS'12 Maroma.mp3'
p821
(dp822
sS'10 Los Tangueros.mp3'
p823
(dp824
sssS'Amos, Tori'
p825
(dp826
S'Unknown Album'
p827
(dp828
S"I'm On Fire.mp3"
p829
(dp830
sssS'A-Ha'
p831
(dp832
S'Take On Me'
p833
(dp834
S'Take On Me.mp3'
p835
(dp836
sssS'Abba'
p837
(dp838
S'Gold - Greatest Hits'
p839
(dp840
S'16 One Of Us.mp3'
p841
(dp842
sS'11 Chiquitita.mp3'
p843
(dp844
sS'01 Dancing Queen.mp3'
p845
(dp846
sS'06 Super Trouper.mp3'
p847
(dp848
sS'05 Lay All Your Love On Me.mp3'
p849
(dp850
sS'07 I Have A Dream.mp3'
p851
(dp852
sS'03 Take A Chance On Me.mp3'
p853
(dp854
sS'02 Knowing Me, Knowing You.mp3'
p855
(dp856
sS'09 Money, Money, Money.mp3'
p857
(dp858
sS'04 Mamma Mia.mp3'
p859
(dp860
sS'10 S. O. S..mp3'
p861
(dp862
sS'17 The Name Of The Game.mp3'
p863
(dp864
sS'12 Fernando.mp3'
p865
(dp866
sS'14 Gimme! Gimme! Gimme! (A Man After Midnight).mp3'
p867
(dp868
sS'19 Waterloo.mp3'
p869
(dp870
sS'13 Voulez Vous.mp3'
p871
(dp872
sS'15 Does Your Mother Know.mp3'
p873
(dp874
sS'08 The Winner Takes It All.mp3'
p875
(dp876
sS'18 Thank You For The Music.mp3'
p877
(dp878
sssS'Artic Monkeys'
p879
(dp880
S'Arctic Monkeys'
p881
(dp882
S'07 Train Or Bus.mp3'
p883
(dp884
sssS'Ben Harper'
p885
(dp886
S'Both Sides Of The Gun [Disc 1]'
p887
(dp888
S'1-09 Happy Everafter In Your Eyes.mp3'
p889
(dp890
sS'1-01 Morning Yearning.mp3'
p891
(dp892
sS'1-04 Never Leave Lonely Alone.mp3'
p893
(dp894
sS'1-06 Reason To Mourn.mp3'
p895
(dp896
sS'1-02 Waiting For You.mp3'
p897
(dp898
sS'1-05 Sweet Nothing Serenade.mp3'
p899
(dp900
sS'1-07 More Than Sorry.mp3'
p901
(dp902
sS'1-03 Picture In A Frame.mp3'
p903
(dp904
sS"1-08 Crying Won't Help You Now.mp3"
p905
(dp906
ssS'Diamonds On The Inside'
p907
(dp908
S'06 Run Eyed Blues.mp3'
p909
(dp910
sS'10 Temporary Remedy.mp3'
p911
(dp912
sS'So High So Low.mp3'
p913
(dp914
sS'When She Believes.mp3'
p915
(dp916
sS'05 When She Believes.mp3'
p917
(dp918
sS"She's Only Happy In The Sun.mp3"
p919
(dp920
sS'Temporary Remedy.mp3'
p921
(dp922
sS'Brown Eyed Blues.mp3'
p923
(dp924
sS'08 Everything.mp3'
p925
(dp926
sS'Amen Omen.mp3'
p927
(dp928
sS'07 Bring The Funk.mp3'
p929
(dp930
sS'12 Blessed To Be A Witness.mp3'
p931
(dp932
sS'Diamonds On The Inside.mp3'
p933
(dp934
sS'11 So High So Low.mp3'
p935
(dp936
sS'Bring The Funk.mp3'
p937
(dp938
sS'01 With My Two Hands.mp3'
p939
(dp940
sS'Blessed To Be A Witness.mp3'
p941
(dp942
sS'With My Own Two Hands.mp3'
p943
(dp944
sS'13 Picture Of Jesus.mp3'
p945
(dp946
sS'09 Amen Omen.mp3'
p947
(dp948
sS'Picture Of Jesus.mp3'
p949
(dp950
sS"14 She's Only Happy In The Sun.mp3"
p951
(dp952
sS"When It's Good.mp3"
p953
(dp954
sS'03 Diamonds On The Inside.mp3'
p955
(dp956
sS'04 Touch From Your Lust.mp3'
p957
(dp958
sS"02 When It's Good.mp3"
p959
(dp960
sS'Touch From Your Lust.mp3'
p961
(dp962
sS'Everything.mp3'
p963
(dp964
ssS'Both Sides Of The Gun [Disc 2]'
p965
(dp966
S'2-07 Get It Like You Like It.mp3'
p967
(dp968
sS'2-02 Both Sides Of The Gun.mp3'
p969
(dp970
sS'2-03 Engraved Invitation.mp3'
p971
(dp972
sS'2-08 The Way You Found Me.mp3'
p973
(dp974
sS'2-01 Better Way.mp3'
p975
(dp976
sS'2-09 Serve Your Soul.mp3'
p977
(dp978
sS'2-04 Black Rain.mp3'
p979
(dp980
sS"2-05 Gather 'Round The Stone.mp3"
p981
(dp982
sS"2-06 Please Don't Talk About Murder While I'm Eating.mp3"
p983
(dp984
ssS'Fight for Your Mind'
p985
(dp986
S'02 Ground on Down.mp3'
p987
(dp988
sS'12 Power of the Gospel.mp3'
p989
(dp990
sS'11 By My Side.mp3'
p991
(dp992
sS'03 Another Lonely Day.mp3'
p993
(dp994
sS'13 God Fearing Man.mp3'
p995
(dp996
sS'06 Burn one down.mp3'
p997
(dp998
sS'09 Fight for Your Mind.mp3'
p999
(dp1000
sS'10 Give a Man a Home.mp3'
p1001
(dp1002
sS'04 Please Make Me Like You Want T.mp3'
p1003
(dp1004
sS'01 Oppression.mp3'
p1005
(dp1006
sS'07 Excuse Me Mr..mp3'
p1007
(dp1008
sS'08 People Lead.mp3'
p1009
(dp1010
sS'06 Burn One Down 1.mp3'
p1011
(dp1012
sS'14 One Road to Freedom.mp3'
p1013
(dp1014
sS'05 Gold to Me.mp3'
p1015
(dp1016
sssS'ATB vs Faithless'
p1017
(dp1018
S'White Label'
p1019
(dp1020
S"32 Don't Stop vs Insomnia.mp3"
p1021
(dp1022
sssS'Aerosmith'
p1023
(dp1024
S'A Little South Of Sanity'
p1025
(dp1026
S'Angel.mp3'
p1027
(dp1028
sS'.DS_Store'
p1029
(dp1030
ssS'Greatest Hits'
p1031
(dp1032
S'Walk This Way.mp3'
p1033
(dp1034
sS'.DS_Store'
p1035
(dp1036
ssS'.DS_Store'
p1037
(dp1038
sS'Pump'
p1039
(dp1040
S"Janie's Got  A Gun.mp3"
p1041
(dp1042
sS'.DS_Store'
p1043
(dp1044
ssS"Aerosmith's Greatest Hits"
p1045
(dp1046
S'05 Last Child.mp3'
p1047
(dp1048
sS'08 Kings And Queens.mp3'
p1049
(dp1050
sS'04 Walk This Way.mp3'
p1051
(dp1052
sS'06 Back in the Saddle.mp3'
p1053
(dp1054
sS'10 Remember (Walking in the Sand).mp3'
p1055
(dp1056
sS'09 Come Together.mp3'
p1057
(dp1058
sS'01 Dream On.mp3'
p1059
(dp1060
sS'02 Same Old Song And Dance.mp3'
p1061
(dp1062
sS'03 Sweet Emotion.mp3'
p1063
(dp1064
sS'07 Draw the Line.mp3'
p1065
(dp1066
ssS'The Best of Rock'
p1067
(dp1068
S'Walk This Way.mp3'
p1069
(dp1070
sS'.DS_Store'
p1071
(dp1072
ssS'Big Ones'
p1073
(dp1074
S'14 Angel.mp3'
p1075
(dp1076
sS'04 What It Takes.mp3'
p1077
(dp1078
sS'08 Amazing.mp3'
p1079
(dp1080
sS"06 Janie's Got A Gun.mp3"
p1081
(dp1082
sS"07 Cryin'.mp3"
p1083
(dp1084
sS'09 Blind Man.mp3'
p1085
(dp1086
sS'05 Dude (Looks Like A Lady).mp3'
p1087
(dp1088
sS'11 The Other Side.mp3'
p1089
(dp1090
sS"15 Livin' On The Edge.mp3"
p1091
(dp1092
sS'10 Deuces Are Wild.mp3'
p1093
(dp1094
sS'02 Love In An Elevator.mp3'
p1095
(dp1096
sS'13 Eat The Rich.mp3'
p1097
(dp1098
sS'01 Walk On Water.mp3'
p1099
(dp1100
sS'12 Crazy.mp3'
p1101
(dp1102
sS'03 Rag Doll.mp3'
p1103
(dp1104
sssS'Babado Novo'
p1105
(dp1106
S'Unknown Album'
p1107
(dp1108
S'Enta\xcc\x83o Vem.mp3'
p1109
(dp1110
sssS'Bebel Gilberto'
p1111
(dp1112
S'Tanto Tempo'
p1113
(dp1114
S'05 Mais Feliz.mp3'
p1115
(dp1116
sS'10 Samba e\xcc\x81 Amor.mp3'
p1117
(dp1118
sS'09 Bananeira.mp3'
p1119
(dp1120
sS'08 Lonely.mp3'
p1121
(dp1122
sS'01 Samba da Benc\xcc\xa7a\xcc\x83o.mp3'
p1123
(dp1124
sS'02 August Day Song.mp3'
p1125
(dp1126
sS'11 Close Your Eyes.mp3'
p1127
(dp1128
sS'04 Sem Contenc\xcc\xa7a\xcc\x83o.mp3'
p1129
(dp1130
sS'06 Algue\xcc\x81m.mp3'
p1131
(dp1132
sS'07 So Nice (Summer Samba).mp3'
p1133
(dp1134
sS'03 Tanto Tempo.mp3'
p1135
(dp1136
sssS'Antonio Carlos Jobim & Sting'
p1137
(dp1138
S'Unknown Album'
p1139
(dp1140
S'How Insensitive (Insensatez).mp3'
p1141
(dp1142
sssS'Apache Indian'
p1143
(dp1144
S'Unknown Album'
p1145
(dp1146
S'Chok There.mp3.mp3'
p1147
(dp1148
sssS'Beatles'
p1149
(dp1150
S'Unknown Album'
p1151
(dp1152
S'Ticket to ride.mp3'
p1153
(dp1154
ssS'The Best of Rock'
p1155
(dp1156
S'Hey Jude.mp3'
p1157
(dp1158
sssS'Badly Drawn Boy'
p1159
(dp1160
S'Unknown Album'
p1161
(dp1162
S'The Shining.mp3'
p1163
(dp1164
sssS'Baby Einstein'
p1165
(dp1166
S'Baby Mozart'
p1167
(dp1168
S'03 Blue Danube Waltz.mp3'
p1169
(dp1170
sssS'Alanis Morissette'
p1171
(dp1172
S'Alanis Unplugged'
p1173
(dp1174
S'09 These R The Thoughts.mp3'
p1175
(dp1176
sS'11 You Oughta Know.mp3'
p1177
(dp1178
sS'01 You Learn.mp3'
p1179
(dp1180
sS'10 King Of Pain.mp3'
p1181
(dp1182
sS'02 Joining You.mp3'
p1183
(dp1184
sS'05 Head Over Feet.mp3'
p1185
(dp1186
sS'04 That I Would Be Good.mp3'
p1187
(dp1188
sS'12 Uninvited.mp3'
p1189
(dp1190
sS'06 Princes Familiar.mp3'
p1191
(dp1192
sS'07 I Was Hoping.mp3'
p1193
(dp1194
sS'03 No Pressure Over Cappucino.mp3'
p1195
(dp1196
sS'08 Ironic.mp3'
p1197
(dp1198
ssS'Unknown Album'
p1199
(dp1200
S'Thank U.mp3'
p1201
(dp1202
ssS'Under Rug Swept'
p1203
(dp1204
S'03 Hands Clean.mp3'
p1205
(dp1206
sS'08 A Man.mp3'
p1207
(dp1208
sS'04 Flinch.mp3'
p1209
(dp1210
sS'01 21 Things I Want In A Lover.mp3'
p1211
(dp1212
sS'09 You Owe Me Nothing In Return.mp3'
p1213
(dp1214
sS'07 That Particular Time.mp3'
p1215
(dp1216
sS'11 Utopia.mp3'
p1217
(dp1218
sS'02 Narcissus.mp3'
p1219
(dp1220
sS'10 Surrendering.mp3'
p1221
(dp1222
sS'06 Precious Illusions.mp3'
p1223
(dp1224
sS'05 So Unsexy.mp3'
p1225
(dp1226
ssS'Jagged Little Pill'
p1227
(dp1228
S'12 Wake Up.mp3'
p1229
(dp1230
sS'10 Ironic.mp3'
p1231
(dp1232
sS'11 Not The Doctor.mp3'
p1233
(dp1234
sS'02 You Oughta Know.mp3'
p1235
(dp1236
sS'07 You Learn.mp3'
p1237
(dp1238
sS'09 Mary Jane.mp3'
p1239
(dp1240
sS'04 Hand In My Pocket.mp3'
p1241
(dp1242
sS'05 Right Through You.mp3'
p1243
(dp1244
sS'03 Perfect.mp3'
p1245
(dp1246
sS'01 All I Really Want.mp3'
p1247
(dp1248
sS'08 Head Over Feet.mp3'
p1249
(dp1250
sS'06 Forgiven.mp3'
p1251
(dp1252
sS'13 You Oughta Know [Alternate Take].mp3'
p1253
(dp1254
sssS'Angie Stone'
p1255
(dp1256
S'Mahogany Soul'
p1257
(dp1258
S'11 Makings of You (Interlude).mp3'
p1259
(dp1260
sS'07 Easier Said Than Done.mp3'
p1261
(dp1262
sS'15 Life Goes On.mp3'
p1263
(dp1264
sS"10 What U Dyin' For.mp3"
p1265
(dp1266
sS'02 Brotha.mp3'
p1267
(dp1268
sS'12 Mad Issues.mp3'
p1269
(dp1270
sS'05 Snowflakes.mp3'
p1271
(dp1272
sS'09 The Ingredients of Love.mp3'
p1273
(dp1274
sS'08 Bottles & Cans.mp3'
p1275
(dp1276
sS"06 Wish I Didn't Miss You.mp3"
p1277
(dp1278
sS'04 More Than a Woman.mp3'
p1279
(dp1280
sS'16 The Heat (Outro).mp3'
p1281
(dp1282
sS"13 If It Wasn't.mp3"
p1283
(dp1284
sS'14 20 Dollars.mp3'
p1285
(dp1286
sS'03 Pissed Off.mp3'
p1287
(dp1288
sS'18 [Untitled].mp3'
p1289
(dp1290
sS'17 Time of the Month [_].mp3'
p1291
(dp1292
sS'01 Soul Insurance.mp3'
p1293
(dp1294
sssS'Arrested Development'
p1295
(dp1296
S'Zingalamaduni'
p1297
(dp1298
S'01 WMFW (We Must Fight And Win) Fm.mp3'
p1299
(dp1300
sS"05 Africa's Inside Me.mp3"
p1301
(dp1302
sS'02 United Minds.mp3'
p1303
(dp1304
sS'09 Warm Sentiments.mp3'
p1305
(dp1306
sS'10 The Drum.mp3'
p1307
(dp1308
sS'08 Mister Landlord.mp3'
p1309
(dp1310
sS'11 In The Sunshine.mp3'
p1311
(dp1312
sS"15 Praisin' U.mp3"
p1313
(dp1314
sS'04 United Front.mp3'
p1315
(dp1316
sS"03 Ache'n For Acres.mp3"
p1317
(dp1318
sS'07 Shell.mp3'
p1319
(dp1320
sS'14 Ease My Mind.mp3'
p1321
(dp1322
sS'06 Pride.mp3'
p1323
(dp1324
sS'13 Fountain Of Youth.mp3'
p1325
(dp1326
sS"12 Kneelin' At My Altar.mp3"
p1327
(dp1328
sssS'Babyface'
p1329
(dp1330
S'Babyface MTV Unplugged NYC 1997 [Live]'
p1331
(dp1332
S'11 How Come, How Long (Featuring Stevie Wonder).mp3'
p1333
(dp1334
sS'07 End Of The Road.mp3'
p1335
(dp1336
sS'03 Whip Appeal.mp3'
p1337
(dp1338
sS'10 Gone Too Soon (Featuring Stevie Wonder).mp3'
p1339
(dp1340
sS'04 Breathe Again (Featuring Shanice Wilson).mp3'
p1341
(dp1342
sS'01 Change The World (Featuring Eric Clapton).mp3'
p1343
(dp1344
sS'02 Talk To Me (Featuring Eric Clapton).mp3'
p1345
(dp1346
sS"06 I'll Make Love To You.mp3"
p1347
(dp1348
sS'05 Exhale (Shoop Shoop) (Featuring Beverly Crowder).mp3'
p1349
(dp1350
sS'09 The Day (That You Gave Me A Son).mp3'
p1351
(dp1352
sS'08 I Care About You (Featuring K-Ci And JoJo, Melvin And Kevon Edmonds).mp3'
p1353
(dp1354
sssS'4 Non Blondes'
p1355
(dp1356
S'Bigger, Better, Faster, More!'
p1357
(dp1358
S"03 What's Up.mp3"
p1359
(dp1360
sS'02 Superfly.mp3'
p1361
(dp1362
sS'04 Pleasantly Blue.mp3'
p1363
(dp1364
sS'08 Calling All The People.mp3'
p1365
(dp1366
sS'10 Drifting.mp3'
p1367
(dp1368
sS'05 Morphine & Chocolate.mp3'
p1369
(dp1370
sS'11 No Place Like Home.mp3'
p1371
(dp1372
sS'01 Train.mp3'
p1373
(dp1374
sS'06 Spaceman.mp3'
p1375
(dp1376
sS'09 Dear Mr. President.mp3'
p1377
(dp1378
sS'07 Old Mr. Heffer.mp3'
p1379
(dp1380
ssS'.DS_Store'
p1381
(dp1382
ssS'B.B. King'
p1383
(dp1384
S'The Best Of B.B. King'
p1385
(dp1386
S'07 Why I Sing The Blues.mp3'
p1387
(dp1388
sS'01 Hummingbird.mp3'
p1389
(dp1390
sS'03 How Blue Can You Get_.mp3'
p1391
(dp1392
sS'04 Caldonia.mp3'
p1393
(dp1394
sS'05 Sweet Sixteen.mp3'
p1395
(dp1396
sS'08 The Thrill Is Gone.mp3'
p1397
(dp1398
sS'09 Nobody Loves Me But My Mother.mp3'
p1399
(dp1400
sS'02 Cook County Jail Introduction.mp3'
p1401
(dp1402
sS"06 Ain't Nobody Home.mp3"
p1403
(dp1404
sssS'Bananarama'
p1405
(dp1406
S'Billboard Top Hits-1986'
p1407
(dp1408
S'Venus.mp3'
p1409
(dp1410
sssS'Beanfield'
p1411
(dp1412
S'Unknown Album'
p1413
(dp1414
S'Charles.mp3'
p1415
(dp1416
sssS'3kStatic'
p1417
(dp1418
S'Unknown Album'
p1419
(dp1420
S'Brilliant Disguise.mp3'
p1421
(dp1422
ssS'.DS_Store'
p1423
(dp1424
ssS'BB King'
p1425
(dp1426
S'Various BB King'
p1427
(dp1428
S"Ain't Nobody's Bizness.mp3"
p1429
(dp1430
sssS'Aretha Franklin'
p1431
(dp1432
S'Aretha Sings The Blues'
p1433
(dp1434
S'12 Evil Gal Blues.mp3'
p1435
(dp1436
sS'03 What A Difference A Day Made.mp3'
p1437
(dp1438
sS'10 Take A Look.mp3'
p1439
(dp1440
sS'09 Laughing On The Outside (Crying On The Inside).mp3'
p1441
(dp1442
sS'13 This Bitter Earth.mp3'
p1443
(dp1444
sS'07 Only The Lonely.mp3'
p1445
(dp1446
sS'06 Muddy Water.mp3'
p1447
(dp1448
sS'04 Without The One You Love.mp3'
p1449
(dp1450
sS'05 Trouble In Mind.mp3'
p1451
(dp1452
sS"14 Maybe I'm A Fool.mp3"
p1453
(dp1454
sS'01 Drinking Again.mp3'
p1455
(dp1456
sS'08 I Wonder (Where Are You Tonight).mp3'
p1457
(dp1458
sS'02 Today I Sing The Blues.mp3'
p1459
(dp1460
sS'11 Nobody Knows The Way I Feel This Morning.mp3'
p1461
(dp1462
ssS'The Best of Rock'
p1463
(dp1464
S'Respect.mp3'
p1465
(dp1466
sssS'Belinda Carlisle'
p1467
(dp1468
S'A Woman & a Man'
p1469
(dp1470
S'In Too Deep.mp3'
p1471
(dp1472
sssS'10000 Maniacs'
p1473
(dp1474
S'Brent'
p1475
(dp1476
S'02 Peace Train.mp3'
p1477
(dp1478
sssS'Ana Belen et Victor Manuel'
p1479
(dp1480
S'Unknown Album'
p1481
(dp1482
S'Asturias.mp3'
p1483
(dp1484
sssS'Alphaville'
p1485
(dp1486
S'Unknown Album'
p1487
(dp1488
S'Alphaville - A Victory Of Love.mp3'
p1489
(dp1490
sS'Alphaville - Forever Young.mp3'
p1491
(dp1492
sS'Big In Japan.mp3'
p1493
(dp1494
sS'Alphaville - Dance With Me.mp3'
p1495
(dp1496
sS"Sounds Like A Melody (12'').mp3"
p1497
(dp1498
sssS'B.U.P_'
p1499
(dp1500
S'Unknown Album'
p1501
(dp1502
S'HardRain.mp3'
p1503
(dp1504
sssS'A Reminiscent Drive'
p1505
(dp1506
S'Hotel Costes, Vol. 3_ Etage 3'
p1507
(dp1508
S'01 Ambrosia.mp3'
p1509
(dp1510
sssS'4 Producers'
p1511
(dp1512
S'Unknown Album'
p1513
(dp1514
S'Laser Ataque.mp3'
p1515
(dp1516
sssS'Audio Lotion'
p1517
(dp1518
S'Unknown Album'
p1519
(dp1520
S'\xc2\xa1Adelante!.mp3'
p1521
(dp1522
sssS'Basque'
p1523
(dp1524
S'Unknown Album'
p1525
(dp1526
S'Falling Forward.mp3'
p1527
(dp1528
sS'Grey And Green.mp3'
p1529
(dp1530
sssS'2 Be 3'
p1531
(dp1532
S'Essentiel 2'
p1533
(dp1534
S'03 Donne.mp3'
p1535
(dp1536
sS'16 Partir Un Jour.mp3'
p1537
(dp1538
sssS'Bee Gees'
p1539
(dp1540
S'Saturday Night Fever'
p1541
(dp1542
S'Staying Alive.mp3'
p1543
(dp1544
sssS'113'
p1545
(dp1546
S'Les Princes De La Ville'
p1547
(dp1548
S'01 Intro.mp3'
p1549
(dp1550
sS'08 Jackpotes 2000.mp3'
p1551
(dp1552
sS'13 Les Princes De La Ville.mp3'
p1553
(dp1554
sS'03 1001 Nuits (Avec Big Red).mp3'
p1555
(dp1556
sS'09 Face A La Police.mp3'
p1557
(dp1558
sS'07 Resrervoir Drogue.mp3'
p1559
(dp1560
sS'12 Sans Retour.mp3'
p1561
(dp1562
sS'05 Les Regrets Restent(Boss).mp3'
p1563
(dp1564
sS'04 Tonton Des Iles.mp3'
p1565
(dp1566
sS'11 Main Dans La Main.mp3'
p1567
(dp1568
sS'10 Tonton Du Bled.mp3'
p1569
(dp1570
sS'02 Ouais Gros.mp3'
p1571
(dp1572
sS'06 Hold Up (Intouchable).mp3'
p1573
(dp1574
sssS'Aimee Mann'
p1575
(dp1576
S'Bachelor No. 2'
p1577
(dp1578
S'10 Backfire.mp3'
p1579
(dp1580
sS'09 Susan.mp3'
p1581
(dp1582
sS'06 Deathly.mp3'
p1583
(dp1584
sS'02 Nothing Is Good Enough.mp3'
p1585
(dp1586
sS'12 It Takes All Kinds.mp3'
p1587
(dp1588
sS'13 You Do.mp3'
p1589
(dp1590
sS'05 Satellite.mp3'
p1591
(dp1592
sS'01 How Am I Different.mp3'
p1593
(dp1594
sS'11 Susan.mp3'
p1595
(dp1596
sS"04 Fall Of The World's Own Optimist.mp3"
p1597
(dp1598
sS'08 Calling It Quits.mp3'
p1599
(dp1600
sS'03 Red Vines.mp3'
p1601
(dp1602
sssS'Audioweb'
p1603
(dp1604
S'Brokedown Palace Soundtrack'
p1605
(dp1606
S'03 Policeman Skank.mp3'
p1607
(dp1608
sssS'Antonio Vivaldi'
p1609
(dp1610
S'Emotion classique'
p1611
(dp1612
S'01 Stabat Mater.mp3'
p1613
(dp1614
sssS'Beach Boys'
p1615
(dp1616
S'Unknown Album'
p1617
(dp1618
S'Good Vibrations.mp3'
p1619
(dp1620
ssS'Pet Sounds'
p1621
(dp1622
S"I'm Waiting for the Day.mp3"
p1623
(dp1624
sS'Caroline, No.mp3'
p1625
(dp1626
sS"I Just Wasn't Made for These...mp3"
p1627
(dp1628
sS"Don't Talk(Put Your Head on My.mp3"
p1629
(dp1630
sS'God Only Knows.mp3'
p1631
(dp1632
sS'Pet Sounds.mp3'
p1633
(dp1634
sS'Sloop John B.mp3'
p1635
(dp1636
sS"Let's Go Away for A While.mp3"
p1637
(dp1638
sS'You Still Believe in Me.mp3'
p1639
(dp1640
sS"That's Not Me.mp3"
p1641
(dp1642
sS"I Know There's an Answer.mp3"
p1643
(dp1644
sS"Wouldn't it Be Nice.mp3"
p1645
(dp1646
sS'Here Today.mp3'
p1647
(dp1648
sssS'Amy Winehouse'
p1649
(dp1650
S"Now That's What I Call Music! Vol 65  (CD1)"
p1651
(dp1652
S'05 Rehab.mp3'
p1653
(dp1654
ssS'Back To Black'
p1655
(dp1656
S'05 Back To Black.mp3'
p1657
(dp1658
sS'01 Rehab.mp3'
p1659
(dp1660
sS'04 Just Friends.mp3'
p1661
(dp1662
sS'03 Me And Mr Jones.mp3'
p1663
(dp1664
sS'10 He Can Only Hold Her.mp3'
p1665
(dp1666
sS'11 Addicted.mp3'
p1667
(dp1668
sS'09 Some Unholy War.mp3'
p1669
(dp1670
sS'08 Wake Up Alone.mp3'
p1671
(dp1672
sS'06 Love Is A Losing Game.mp3'
p1673
(dp1674
sS'07 Tears Dry On Their Own.mp3'
p1675
(dp1676
sS"02 You Know I'm No Good.mp3"
p1677
(dp1678
sssS'Bandolero'
p1679
(dp1680
S'Digital Anne\xcc\x81es 80'
p1681
(dp1682
S'14 Paris Latino - Bandolero.mp3'
p1683
(dp1684
sssS'02 FeiFei'
p1685
(dp1686
S'Feided on ETN.fm 2007'
p1687
(dp1688
S'08-08.mp3'
p1689
(dp1690
sssS'Band'
p1691
(dp1692
S'Unknown Album'
p1693
(dp1694
S'Trombone.mp3'
p1695
(dp1696
sssS'Ajouter automatiquement a\xcc\x80 iTunes'
p1697
(dp1698
sS'Aretha Franklin & Keith Richards'
p1699
(dp1700
S'The Best of Rock'
p1701
(dp1702
S"Jumpin' Jack Flash (Live).mp3"
p1703
(dp1704
sssS'_Jacques Brel'
p1705
(dp1706
S'Unknown Album'
p1707
(dp1708
S'Mathilde.mp3'
p1709
(dp1710
sssS'2 Unlimited'
p1711
(dp1712
S'No Limits'
p1713
(dp1714
S'14 Shelter For A Rainy Day.mp3'
p1715
(dp1716
sS'08 Kiss Me Bliss Me.mp3'
p1717
(dp1718
sS'07 Break The Chain.mp3'
p1719
(dp1720
sS'05 Maximum Overdrive.mp3'
p1721
(dp1722
sS'03 Mysterious.mp3'
p1723
(dp1724
sS'04 Faces.mp3'
p1725
(dp1726
sS'01 No Limit.mp3'
p1727
(dp1728
sS'13 Where Are You Now.mp3'
p1729
(dp1730
sS'12 Invite Me To Trance.mp3'
p1731
(dp1732
sS'10 R.U.O.K..mp3'
p1733
(dp1734
sS'02 Tribal Dance.mp3'
p1735
(dp1736
sS'06 The Power Age.mp3'
p1737
(dp1738
sS'09 Throw The Groove Down.mp3'
p1739
(dp1740
sS'11 Let The Beat Control Your Body.mp3'
p1741
(dp1742
sssS'Ana Sonia'
p1743
(dp1744
S'Unknown Album'
p1745
(dp1746
S'Pa\xcc\x81ssaro Multicor (Multi-coulor.mp3'
p1747
(dp1748
sS'Quebrando (Breaking).mp3'
p1749
(dp1750
sssS'Baby Wayne'
p1751
(dp1752
S'Unknown Album'
p1753
(dp1754
S'Ak 47 (Remix).mp3'
p1755
(dp1756
sssS'Barrington Levy'
p1757
(dp1758
S'Unknown Album'
p1759
(dp1760
S'Pon Yu Toe.mp3'
p1761
(dp1762
sssS'Alias'
p1763
(dp1764
S'Unknown Album'
p1765
(dp1766
S'What You See (Majikstar remix).mp3'
p1767
(dp1768
sssS'Beenie Man'
p1769
(dp1770
S'Unknown Album'
p1771
(dp1772
S'Street Life (Jd Remix Main).mp3'
p1773
(dp1774
sssS'Ani DiFranco & Tori Amos'
p1775
(dp1776
S'Unknown Album'
p1777
(dp1778
S'Silent All These Years.mp3'
p1779
(dp1780
sssS'Amalia Rodriguez'
p1781
(dp1782
S'Best of Fado Portuguese'
p1783
(dp1784
S'03 Maria.mp3'
p1785
(dp1786
sssS'Amalia Rodrigues'
p1787
(dp1788
S'Amalia Rodrigues Various'
p1789
(dp1790
S'Fado do Estoril.mp3'
p1791
(dp1792
sS'06 Fado Corrido.mp3'
p1793
(dp1794
sS'Lisboa Antigua.mp3'
p1795
(dp1796
sS'Fado Alfacinha.mp3'
p1797
(dp1798
sssS'Astrud Gilberto'
p1799
(dp1800
S'Getz-Gilberto featuring Antonio Carlos Jobim'
p1801
(dp1802
S'06 So Danc\xcc\xa7o Samba.mp3'
p1803
(dp1804
sssS'Balavoine'
p1805
(dp1806
S'Unknown Album'
p1807
(dp1808
S'Je ne suis pas un heros.mp3'
p1809
(dp1810
sssS'Apeanaut'
p1811
(dp1812
S'Unknown Album'
p1813
(dp1814
S'Fever.mp3'
p1815
(dp1816
sssS'Ani Difranco'
p1817
(dp1818
S'copenhagen112199'
p1819
(dp1820
S'Track04.mp3'
p1821
(dp1822
sssS'Bach, Johann Sebastian'
p1823
(dp1824
S'Johannes Passion'
p1825
(dp1826
S"02 Koor_ O grosse Lieb'.mp3"
p1827
(dp1828
sS'16 Aria Alt_ Es ist vollbracht.mp3'
p1829
(dp1830
sS'08 Koor_ Ach, grosser Ko\xcc\x88nig.mp3'
p1831
(dp1832
sS'05 Koor_ Wer hat dich so geschlagen.mp3'
p1833
(dp1834
sS'04 Aria Sopraan_ Ich folge Dir gleichfalls mit freudigen Schritten.mp3'
p1835
(dp1836
sS'07 Koor_ Christus, der uns selig macht.mp3'
p1837
(dp1838
sS'06 Koor_ Petrus der nicht denkt zurru\xcc\x88ck.mp3'
p1839
(dp1840
sS"21 Koor_ Ach Herr, lass dein 'lieb' Engelein.mp3"
p1841
(dp1842
sS'13 Aria Bas met koor_ Eilt, ihr angefochtnen Seelen.mp3'
p1843
(dp1844
sS'18 Aria Sopraan_ Zerfliesse, meine Herze.mp3'
p1845
(dp1846
sS"03 Koor_ Dein Will'gescheh'.mp3"
p1847
(dp1848
sS'10 Aria Tenor_ Erwa\xcc\x88ge, wie sein blut gefa\xcc\x88rbter Ru\xcc\x88cken.mp3'
p1849
(dp1850
sS"09 Arioso Bas_ Betracht, meine Seel'.mp3"
p1851
(dp1852
sS'19 Koor_ O hilf Christe, Gottes Sohn.mp3'
p1853
(dp1854
sS'12 Koor_ Durch dein Gefa\xcc\x88ngnis, Gottes Sohn.mp3'
p1855
(dp1856
sS'11 Dialoog Evangelist, koor, Pilatus, Jesus.mp3'
p1857
(dp1858
sS'15 Koor_ Er nahm alles wohl in acht.mp3'
p1859
(dp1860
sS'20 Koor_ Ruht wohl, ihr heiligen Gebeine.mp3'
p1861
(dp1862
sS'17 Aria Bas met koor_ Mein teurer Heiland, lass dich fragen.mp3'
p1863
(dp1864
sS'14 Koor_ In meines Herzens Grunde.mp3'
p1865
(dp1866
sS'01 Koor_ Herr,unser Herrscher.mp3'
p1867
(dp1868
sss.